target datalayout = "e-m:e-p270:32:32-p271:32:32-p272:64:64-i64:64-i128:128-f80:128-n8:16:32:64-S128"
target triple = "x86_64-pc-linux-gnu"

%struct.Cec_ParSim_t_ = type { i32, i32, i32, i32, i32, i32, i32, i32, i32, i32, i32, i32 }
%struct.Gia_Man_t_ = type { ptr, ptr, i32, i32, i32, i32, ptr, ptr, i32, i32, i32, ptr, ptr, %struct.Vec_Int_t_, %struct.Vec_Int_t_, i32, i32, i32, %struct.Vec_Int_t_, ptr, ptr, ptr, i32, i32, i32, i32, ptr, ptr, ptr, ptr, ptr, i32, i32, ptr, i32, ptr, ptr, ptr, ptr, ptr, ptr, ptr, ptr, ptr, ptr, ptr, ptr, ptr, ptr, ptr, ptr, ptr, ptr, %struct.Vec_Int_t_, %struct.Vec_Int_t_, ptr, ptr, ptr, ptr, ptr, ptr, ptr, ptr, ptr, ptr, ptr, ptr, ptr, ptr, ptr, ptr, ptr, ptr, ptr, ptr, ptr, i32, float, float, ptr, ptr, i32, ptr, ptr, ptr, ptr, ptr, ptr, ptr, ptr, ptr, ptr, ptr, ptr, ptr, ptr, ptr, i64, i64, ptr, ptr, i32, i32, i32, i32, i32, i32, i32, i32, i32, i32, i32, i32, ptr, ptr, ptr, ptr, ptr, ptr, ptr, ptr, i32, i32, i32, ptr, i32, i32, ptr, ptr, ptr, ptr, ptr, ptr, i32, i32, ptr, %struct.Vec_Int_t_, %struct.Vec_Int_t_, %struct.Vec_Int_t_, ptr, ptr, ptr, i32, i32, i32, i32, ptr, ptr, ptr, ptr, ptr }
%struct.Vec_Int_t_ = type { i32, i32, ptr }
%struct.Cec_ManSim_t_ = type { ptr, ptr, i32, ptr, ptr, i32, i32, i32, i32, i32, ptr, ptr, ptr, i32, i32, ptr, ptr, ptr, ptr, ptr, ptr, ptr }
%struct.timespec = type { i64, i64 }

@.str = private unnamed_addr constant [79 x i8] c"The number of failed outputs of the miter = %6d. (Words = %4d. Frames = %4d.)\0A\00", align 1
@.str.1 = private unnamed_addr constant [5 x i8] c"Time\00", align 1
@.str.26 = private unnamed_addr constant [5 x i8] c"%s =\00", align 1
@.str.27 = private unnamed_addr constant [11 x i8] c"%9.2f sec\0A\00", align 1

; Function Attrs: inlinehint nounwind uwtable
define internal void @Abc_PrintTime(i32 noundef %0, ptr noundef %1, i64 noundef %2) #4 {
  %4 = alloca i32, align 4
  %5 = alloca ptr, align 8
  %6 = alloca i64, align 8
  store i32 %0, ptr %4, align 4, !tbaa !104
  store ptr %1, ptr %5, align 8, !tbaa !132
  store i64 %2, ptr %6, align 8, !tbaa !126
  %7 = load ptr, ptr %5, align 8, !tbaa !132
  call void (i32, ptr, ...) @Abc_Print(i32 noundef 1, ptr noundef @.str.26, ptr noundef %7)
  %8 = load i64, ptr %6, align 8, !tbaa !126
  %9 = sitofp i64 %8 to double
  %10 = fmul double 1.000000e+00, %9
  %11 = fdiv double %10, 1.000000e+06
  call void (i32, ptr, ...) @Abc_Print(i32 noundef 1, ptr noundef @.str.27, double noundef %11)
  ret void
}

; Function Attrs: inlinehint nounwind uwtable
define internal i64 @Abc_Clock() #4 {
  %1 = alloca i64, align 8
  %2 = alloca %struct.timespec, align 8
  %3 = alloca i32, align 4
  %4 = alloca i64, align 8
  call void @llvm.lifetime.start.p0(i64 16, ptr %2) #10
  %5 = call i32 @clock_gettime(i32 noundef 1, ptr noundef %2) #10
  %6 = icmp slt i32 %5, 0
  br i1 %6, label %7, label %8

7:                                                ; preds = %0
  store i64 -1, ptr %1, align 8
  store i32 1, ptr %3, align 4
  br label %19

8:                                                ; preds = %0
  call void @llvm.lifetime.start.p0(i64 8, ptr %4) #10
  %9 = getelementptr inbounds nuw %struct.timespec, ptr %2, i32 0, i32 0
  %10 = load i64, ptr %9, align 8, !tbaa !183
  %11 = mul nsw i64 %10, 1000000
  store i64 %11, ptr %4, align 8, !tbaa !126
  %12 = getelementptr inbounds nuw %struct.timespec, ptr %2, i32 0, i32 1
  %13 = load i64, ptr %12, align 8, !tbaa !185
  %14 = mul nsw i64 %13, 1000000
  %15 = sdiv i64 %14, 1000000000
  %16 = load i64, ptr %4, align 8, !tbaa !126
  %17 = add nsw i64 %16, %15
  store i64 %17, ptr %4, align 8, !tbaa !126
  %18 = load i64, ptr %4, align 8, !tbaa !126
  store i64 %18, ptr %1, align 8
  store i32 1, ptr %3, align 4
  call void @llvm.lifetime.end.p0(i64 8, ptr %4) #10
  br label %19

19:                                               ; preds = %8, %7
  call void @llvm.lifetime.end.p0(i64 16, ptr %2) #10
  %20 = load i64, ptr %1, align 8
  ret i64 %20
}

; Function Attrs: nounwind uwtable
define i32 @Cec_ManSimulationOne(ptr noundef %0, ptr noundef %1) #0 {
  %3 = alloca ptr, align 8
  %4 = alloca ptr, align 8
  %5 = alloca ptr, align 8
  %6 = alloca i32, align 4
  %7 = alloca i64, align 8
  store ptr %0, ptr %3, align 8, !tbaa !102
  store ptr %1, ptr %4, align 8, !tbaa !19
  call void @llvm.lifetime.start.p0(i64 8, ptr %5) #10
  call void @llvm.lifetime.start.p0(i64 4, ptr %6) #10
  store i32 0, ptr %6, align 4, !tbaa !104
  call void @llvm.lifetime.start.p0(i64 8, ptr %7) #10
  %8 = call i64 @Abc_Clock()
  store i64 %8, ptr %7, align 8, !tbaa !126
  %9 = load ptr, ptr %3, align 8, !tbaa !102
  %10 = load ptr, ptr %4, align 8, !tbaa !19
  %11 = call ptr @Cec_ManSimStart(ptr noundef %9, ptr noundef %10)
  store ptr %11, ptr %5, align 8, !tbaa !127
  %12 = load ptr, ptr %3, align 8, !tbaa !102
  %13 = getelementptr inbounds nuw %struct.Gia_Man_t_, ptr %12, i32 0, i32 27
  %14 = load ptr, ptr %13, align 8, !tbaa !129
  %15 = icmp eq ptr %14, null
  br i1 %15, label %16, label %20

16:                                               ; preds = %2
  %17 = load ptr, ptr %5, align 8, !tbaa !127
  %18 = call i32 @Cec_ManSimClassesPrepare(ptr noundef %17, i32 noundef -1)
  store i32 %18, ptr %6, align 4, !tbaa !104
  %19 = icmp ne i32 %18, 0
  br i1 %19, label %27, label %20

20:                                               ; preds = %16, %2
  %21 = load i32, ptr %6, align 4, !tbaa !104
  %22 = icmp eq i32 %21, 0
  br i1 %22, label %23, label %37

23:                                               ; preds = %20
  %24 = load ptr, ptr %5, align 8, !tbaa !127
  %25 = call i32 @Cec_ManSimClassesRefine(ptr noundef %24)
  store i32 %25, ptr %6, align 4, !tbaa !104
  %26 = icmp ne i32 %25, 0
  br i1 %26, label %27, label %37

27:                                               ; preds = %23, %16
  %28 = load ptr, ptr %5, align 8, !tbaa !127
  %29 = getelementptr inbounds nuw %struct.Cec_ManSim_t_, ptr %28, i32 0, i32 14
  %30 = load i32, ptr %29, align 4, !tbaa !130
  %31 = load ptr, ptr %4, align 8, !tbaa !19
  %32 = getelementptr inbounds nuw %struct.Cec_ParSim_t_, ptr %31, i32 0, i32 0
  %33 = load i32, ptr %32, align 4, !tbaa !21
  %34 = load ptr, ptr %4, align 8, !tbaa !19
  %35 = getelementptr inbounds nuw %struct.Cec_ParSim_t_, ptr %34, i32 0, i32 1
  %36 = load i32, ptr %35, align 4, !tbaa !23
  call void (i32, ptr, ...) @Abc_Print(i32 noundef 1, ptr noundef @.str, i32 noundef %30, i32 noundef %33, i32 noundef %36)
  br label %37

37:                                               ; preds = %27, %23, %20
  %38 = load ptr, ptr %4, align 8, !tbaa !19
  %39 = getelementptr inbounds nuw %struct.Cec_ParSim_t_, ptr %38, i32 0, i32 11
  %40 = load i32, ptr %39, align 4, !tbaa !32
  %41 = icmp ne i32 %40, 0
  br i1 %41, label %42, label %46

42:                                               ; preds = %37
  %43 = call i64 @Abc_Clock()
  %44 = load i64, ptr %7, align 8, !tbaa !126
  %45 = sub nsw i64 %43, %44
  call void @Abc_PrintTime(i32 noundef 1, ptr noundef @.str.1, i64 noundef %45)
  br label %46

46:                                               ; preds = %42, %37
  %47 = load ptr, ptr %5, align 8, !tbaa !127
  call void @Cec_ManSimStop(ptr noundef %47)
  %48 = load i32, ptr %6, align 4, !tbaa !104
  call void @llvm.lifetime.end.p0(i64 8, ptr %7) #10
  call void @llvm.lifetime.end.p0(i64 4, ptr %6) #10
  call void @llvm.lifetime.end.p0(i64 8, ptr %5) #10
  ret i32 %48
}