; Function Attrs: nounwind uwtable
define i32 @Cec_ManSimulationOne(ptr noundef %0, ptr noundef %1) local_unnamed_addr #2 {
  %3 = alloca %struct.timespec, align 8
  %4 = alloca %struct.timespec, align 8
  call void @llvm.lifetime.start.p0(i64 16, ptr nonnull %4) #14
  %5 = call i32 @clock_gettime(i32 noundef 1, ptr noundef nonnull %4) #14
  %6 = icmp slt i32 %5, 0
  br i1 %6, label %Abc_Clock.exit, label %7

7:                                                ; preds = %2
  %8 = load i64, ptr %4, align 8, !tbaa !88
  %.neg20 = mul i64 %8, -1000000
  %9 = getelementptr inbounds nuw i8, ptr %4, i64 8
  %10 = load i64, ptr %9, align 8, !tbaa !90
  %.neg = sdiv i64 %10, -1000
  %.neg21 = add i64 %.neg, %.neg20
  br label %Abc_Clock.exit

Abc_Clock.exit:                                   ; preds = %2, %7
  %.0.i.neg = phi i64 [ %.neg21, %7 ], [ 1, %2 ]
  call void @llvm.lifetime.end.p0(i64 16, ptr nonnull %4) #14
  %11 = call ptr @Cec_ManSimStart(ptr noundef %0, ptr noundef %1) #14
  %12 = getelementptr inbounds nuw i8, ptr %0, i64 192
  %13 = load ptr, ptr %12, align 8, !tbaa !91
  %14 = icmp eq ptr %13, null
  br i1 %14, label %15, label %17

15:                                               ; preds = %Abc_Clock.exit
  %16 = call i32 @Cec_ManSimClassesPrepare(ptr noundef %11, i32 noundef -1) #14
  %.not = icmp eq i32 %16, 0
  br i1 %.not, label %17, label %19

17:                                               ; preds = %Abc_Clock.exit, %15
  %18 = call i32 @Cec_ManSimClassesRefine(ptr noundef %11) #14
  %.not16 = icmp eq i32 %18, 0
  br i1 %.not16, label %25, label %19

19:                                               ; preds = %17, %15
  %.1 = phi i32 [ %16, %15 ], [ %18, %17 ]
  %20 = getelementptr inbounds nuw i8, ptr %11, i64 92
  %21 = load i32, ptr %20, align 4, !tbaa !92
  %22 = load i32, ptr %1, align 4, !tbaa !16
  %23 = getelementptr inbounds nuw i8, ptr %1, i64 4
  %24 = load i32, ptr %23, align 4, !tbaa !18
  call void (i32, ptr, ...) @Abc_Print(i32 poison, ptr noundef nonnull @.str, i32 noundef %21, i32 noundef %22, i32 noundef %24)
  br label %25

25:                                               ; preds = %19, %17
  %.2 = phi i32 [ %.1, %19 ], [ 0, %17 ]
  %26 = getelementptr inbounds nuw i8, ptr %1, i64 44
  %27 = load i32, ptr %26, align 4, !tbaa !23
  %.not17 = icmp eq i32 %27, 0
  br i1 %.not17, label %41, label %28

28:                                               ; preds = %25
  call void @llvm.lifetime.start.p0(i64 16, ptr nonnull %3) #14
  %29 = call i32 @clock_gettime(i32 noundef 1, ptr noundef nonnull %3) #14
  %30 = icmp slt i32 %29, 0
  br i1 %30, label %Abc_Clock.exit19, label %31

31:                                               ; preds = %28
  %32 = load i64, ptr %3, align 8, !tbaa !88
  %33 = mul nsw i64 %32, 1000000
  %34 = getelementptr inbounds nuw i8, ptr %3, i64 8
  %35 = load i64, ptr %34, align 8, !tbaa !90
  %36 = sdiv i64 %35, 1000
  %37 = add nsw i64 %36, %33
  br label %Abc_Clock.exit19

Abc_Clock.exit19:                                 ; preds = %28, %31
  %.0.i18 = phi i64 [ %37, %31 ], [ -1, %28 ]
  call void @llvm.lifetime.end.p0(i64 16, ptr nonnull %3) #14
  %38 = add i64 %.0.i18, %.0.i.neg
  call void (i32, ptr, ...) @Abc_Print(i32 poison, ptr noundef nonnull @.str.26, ptr noundef nonnull @.str.1)
  %39 = sitofp i64 %38 to double
  %40 = fdiv double %39, 1.000000e+06
  call void (i32, ptr, ...) @Abc_Print(i32 poison, ptr noundef nonnull @.str.27, double noundef %40)
  br label %41

41:                                               ; preds = %Abc_Clock.exit19, %25
  call void @Cec_ManSimStop(ptr noundef %11) #14
  ret i32 %.2
}